target datalayout = "e-m:e-p270:32:32-p271:32:32-p272:64:64-i64:64-i128:128-f80:128-n8:16:32:64-S128"
target triple = "x86_64-pc-linux-gnu"

%struct.H5HF_dtable_t = type { %struct.H5HF_dtable_cparam_t, i64, i32, i32, i32, i32, i32, i32, i32, i64, ptr, ptr, ptr, ptr }
%struct.H5HF_dtable_cparam_t = type { i32, i64, i64, i32, i32 }

@H5HF_init_g = external global i8, align 1
@H5_libterm_g = external global i8, align 1
@.str = private unnamed_addr constant [104 x i8] c"generated/home/dtcxzyw/WorkSpace/Projects/compilers/llvm-opt-benchmark/bench/hdf5/hdf5/src/H5HFdtable.c\00", align 1
@__func__.H5HF__dtable_init = private unnamed_addr constant [18 x i8] c"H5HF__dtable_init\00", align 1
@H5E_RESOURCE_g = external global i64, align 8
@H5E_NOSPACE_g = external global i64, align 8
@.str.1 = private unnamed_addr constant [45 x i8] c"can't create doubling table block size table\00", align 1
@.str.2 = private unnamed_addr constant [47 x i8] c"can't create doubling table block offset table\00", align 1
@.str.3 = private unnamed_addr constant [64 x i8] c"can't create doubling table total direct block free space table\00", align 1
@.str.4 = private unnamed_addr constant [63 x i8] c"can't create doubling table max. direct block free space table\00", align 1

; Function Attrs: inlinehint nounwind willreturn memory(read) uwtable
define internal i32 @H5VM_log2_of2(i32 noundef %0) #3 {
  %2 = alloca i32, align 4
  store i32 %0, ptr %2, align 4, !tbaa !8
  %3 = load i32, ptr %2, align 4, !tbaa !8
  %4 = mul i32 %3, 125613361
  %5 = lshr i32 %4, 27
  %6 = zext i32 %5 to i64
  %7 = getelementptr inbounds nuw [32 x i32], ptr @MultiplyDeBruijnBitPosition, i64 0, i64 %6
  %8 = load i32, ptr %7, align 4, !tbaa !8
  ret i32 %8
}

; Function Attrs: nounwind uwtable
define i32 @H5HF__dtable_init(ptr noundef %0) #0 {
  %2 = alloca ptr, align 8
  %3 = alloca i64, align 8
  %4 = alloca i64, align 8
  %5 = alloca i64, align 8
  %6 = alloca i32, align 4
  %7 = alloca i8, align 1
  store ptr %0, ptr %2, align 8, !tbaa !3
  call void @llvm.lifetime.start.p0(i64 8, ptr %3) #7
  call void @llvm.lifetime.start.p0(i64 8, ptr %4) #7
  call void @llvm.lifetime.start.p0(i64 8, ptr %5) #7
  call void @llvm.lifetime.start.p0(i64 4, ptr %6) #7
  store i32 0, ptr %6, align 4, !tbaa !8
  call void @llvm.lifetime.start.p0(i64 1, ptr %7) #7
  store i8 0, ptr %7, align 1, !tbaa !10
  %8 = load i8, ptr @H5HF_init_g, align 1, !tbaa !10, !range !12, !noundef !13
  %9 = trunc i8 %8 to i1
  br i1 %9, label %14, label %10

10:                                               ; preds = %1
  %11 = load i8, ptr @H5_libterm_g, align 1, !tbaa !10, !range !12, !noundef !13
  %12 = trunc i8 %11 to i1
  %13 = xor i1 %12, true
  br label %14

14:                                               ; preds = %10, %1
  %15 = phi i1 [ true, %1 ], [ %13, %10 ]
  %16 = xor i1 %15, true
  %17 = xor i1 %16, true
  %18 = zext i1 %17 to i32
  %19 = sext i32 %18 to i64
  %20 = call i64 @llvm.expect.i64(i64 %19, i64 1)
  %21 = icmp ne i64 %20, 0
  br i1 %21, label %22, label %264

22:                                               ; preds = %14
  %23 = load ptr, ptr %2, align 8, !tbaa !3
  %24 = getelementptr inbounds nuw %struct.H5HF_dtable_t, ptr %23, i32 0, i32 0
  %25 = getelementptr inbounds nuw %struct.H5HF_dtable_cparam_t, ptr %24, i32 0, i32 1
  %26 = load i64, ptr %25, align 8, !tbaa !14
  %27 = trunc i64 %26 to i32
  %28 = call i32 @H5VM_log2_of2(i32 noundef %27) #8
  %29 = load ptr, ptr %2, align 8, !tbaa !3
  %30 = getelementptr inbounds nuw %struct.H5HF_dtable_t, ptr %29, i32 0, i32 5
  store i32 %28, ptr %30, align 4, !tbaa !19
  %31 = load ptr, ptr %2, align 8, !tbaa !3
  %32 = getelementptr inbounds nuw %struct.H5HF_dtable_t, ptr %31, i32 0, i32 5
  %33 = load i32, ptr %32, align 4, !tbaa !19
  %34 = load ptr, ptr %2, align 8, !tbaa !3
  %35 = getelementptr inbounds nuw %struct.H5HF_dtable_t, ptr %34, i32 0, i32 0
  %36 = getelementptr inbounds nuw %struct.H5HF_dtable_cparam_t, ptr %35, i32 0, i32 0
  %37 = load i32, ptr %36, align 8, !tbaa !20
  %38 = call i32 @H5VM_log2_of2(i32 noundef %37) #8
  %39 = add i32 %33, %38
  %40 = load ptr, ptr %2, align 8, !tbaa !3
  %41 = getelementptr inbounds nuw %struct.H5HF_dtable_t, ptr %40, i32 0, i32 8
  store i32 %39, ptr %41, align 8, !tbaa !21
  %42 = load ptr, ptr %2, align 8, !tbaa !3
  %43 = getelementptr inbounds nuw %struct.H5HF_dtable_t, ptr %42, i32 0, i32 0
  %44 = getelementptr inbounds nuw %struct.H5HF_dtable_cparam_t, ptr %43, i32 0, i32 3
  %45 = load i32, ptr %44, align 8, !tbaa !22
  %46 = load ptr, ptr %2, align 8, !tbaa !3
  %47 = getelementptr inbounds nuw %struct.H5HF_dtable_t, ptr %46, i32 0, i32 8
  %48 = load i32, ptr %47, align 8, !tbaa !21
  %49 = sub i32 %45, %48
  %50 = add i32 %49, 1
  %51 = load ptr, ptr %2, align 8, !tbaa !3
  %52 = getelementptr inbounds nuw %struct.H5HF_dtable_t, ptr %51, i32 0, i32 3
  store i32 %50, ptr %52, align 4, !tbaa !23
  %53 = load ptr, ptr %2, align 8, !tbaa !3
  %54 = getelementptr inbounds nuw %struct.H5HF_dtable_t, ptr %53, i32 0, i32 0
  %55 = getelementptr inbounds nuw %struct.H5HF_dtable_cparam_t, ptr %54, i32 0, i32 2
  %56 = load i64, ptr %55, align 8, !tbaa !24
  %57 = trunc i64 %56 to i32
  %58 = call i32 @H5VM_log2_of2(i32 noundef %57) #8
  %59 = load ptr, ptr %2, align 8, !tbaa !3
  %60 = getelementptr inbounds nuw %struct.H5HF_dtable_t, ptr %59, i32 0, i32 6
  store i32 %58, ptr %60, align 8, !tbaa !25
  %61 = load ptr, ptr %2, align 8, !tbaa !3
  %62 = getelementptr inbounds nuw %struct.H5HF_dtable_t, ptr %61, i32 0, i32 6
  %63 = load i32, ptr %62, align 8, !tbaa !25
  %64 = load ptr, ptr %2, align 8, !tbaa !3
  %65 = getelementptr inbounds nuw %struct.H5HF_dtable_t, ptr %64, i32 0, i32 5
  %66 = load i32, ptr %65, align 4, !tbaa !19
  %67 = sub i32 %63, %66
  %68 = add i32 %67, 2
  %69 = load ptr, ptr %2, align 8, !tbaa !3
  %70 = getelementptr inbounds nuw %struct.H5HF_dtable_t, ptr %69, i32 0, i32 4
  store i32 %68, ptr %70, align 8, !tbaa !26
  %71 = load ptr, ptr %2, align 8, !tbaa !3
  %72 = getelementptr inbounds nuw %struct.H5HF_dtable_t, ptr %71, i32 0, i32 0
  %73 = getelementptr inbounds nuw %struct.H5HF_dtable_cparam_t, ptr %72, i32 0, i32 1
  %74 = load i64, ptr %73, align 8, !tbaa !14
  %75 = load ptr, ptr %2, align 8, !tbaa !3
  %76 = getelementptr inbounds nuw %struct.H5HF_dtable_t, ptr %75, i32 0, i32 0
  %77 = getelementptr inbounds nuw %struct.H5HF_dtable_cparam_t, ptr %76, i32 0, i32 0
  %78 = load i32, ptr %77, align 8, !tbaa !20
  %79 = zext i32 %78 to i64
  %80 = mul i64 %74, %79
  %81 = load ptr, ptr %2, align 8, !tbaa !3
  %82 = getelementptr inbounds nuw %struct.H5HF_dtable_t, ptr %81, i32 0, i32 9
  store i64 %80, ptr %82, align 8, !tbaa !27
  %83 = load ptr, ptr %2, align 8, !tbaa !3
  %84 = getelementptr inbounds nuw %struct.H5HF_dtable_t, ptr %83, i32 0, i32 0
  %85 = getelementptr inbounds nuw %struct.H5HF_dtable_cparam_t, ptr %84, i32 0, i32 2
  %86 = load i64, ptr %85, align 8, !tbaa !24
  %87 = trunc i64 %86 to i32
  %88 = call i32 @H5VM_log2_of2(i32 noundef %87) #8
  %89 = add i32 %88, 7
  %90 = udiv i32 %89, 8
  %91 = load ptr, ptr %2, align 8, !tbaa !3
  %92 = getelementptr inbounds nuw %struct.H5HF_dtable_t, ptr %91, i32 0, i32 7
  store i32 %90, ptr %92, align 4, !tbaa !28
  %93 = load ptr, ptr %2, align 8, !tbaa !3
  %94 = getelementptr inbounds nuw %struct.H5HF_dtable_t, ptr %93, i32 0, i32 3
  %95 = load i32, ptr %94, align 4, !tbaa !23
  %96 = zext i32 %95 to i64
  %97 = mul i64 %96, 8
  %98 = call noalias ptr @malloc(i64 noundef %97) #9
  %99 = load ptr, ptr %2, align 8, !tbaa !3
  %100 = getelementptr inbounds nuw %struct.H5HF_dtable_t, ptr %99, i32 0, i32 10
  store ptr %98, ptr %100, align 8, !tbaa !29
  %101 = icmp eq ptr null, %98
  br i1 %101, label %102, label %121

102:                                              ; preds = %22
  br label %103

103:                                              ; preds = %102
  br label %104

104:                                              ; preds = %103
  br label %105

105:                                              ; preds = %104
  %106 = load i64, ptr @H5E_RESOURCE_g, align 8, !tbaa !30
  %107 = load i64, ptr @H5E_NOSPACE_g, align 8, !tbaa !30
  %108 = call i32 (ptr, ptr, i32, i64, i64, ptr, ...) @H5E_printf_stack(ptr noundef @.str, ptr noundef @__func__.H5HF__dtable_init, i32 noundef 100, i64 noundef %106, i64 noundef %107, ptr noundef @.str.1)
  br label %109

109:                                              ; preds = %105
  br label %110

110:                                              ; preds = %109
  store i8 1, ptr %7, align 1, !tbaa !10
  %111 = load i8, ptr %7, align 1, !tbaa !10, !range !12, !noundef !13
  %112 = trunc i8 %111 to i1
  %113 = zext i1 %112 to i8
  store i8 %113, ptr %7, align 1, !tbaa !10
  br label %114

114:                                              ; preds = %110
  br label %115

115:                                              ; preds = %114
  br label %116

116:                                              ; preds = %115
  store i32 -1, ptr %6, align 4, !tbaa !8
  br label %263

117:                                              ; No predecessors!
  br label %118

118:                                              ; preds = %117
  br label %119

119:                                              ; preds = %118
  br label %120

120:                                              ; preds = %119
  br label %121

121:                                              ; preds = %120, %22
  %122 = load ptr, ptr %2, align 8, !tbaa !3
  %123 = getelementptr inbounds nuw %struct.H5HF_dtable_t, ptr %122, i32 0, i32 3
  %124 = load i32, ptr %123, align 4, !tbaa !23
  %125 = zext i32 %124 to i64
  %126 = mul i64 %125, 8
  %127 = call noalias ptr @malloc(i64 noundef %126) #9
  %128 = load ptr, ptr %2, align 8, !tbaa !3
  %129 = getelementptr inbounds nuw %struct.H5HF_dtable_t, ptr %128, i32 0, i32 11
  store ptr %127, ptr %129, align 8, !tbaa !31
  %130 = icmp eq ptr null, %127
  br i1 %130, label %131, label %150

131:                                              ; preds = %121
  br label %132

132:                                              ; preds = %131
  br label %133

133:                                              ; preds = %132
  br label %134

134:                                              ; preds = %133
  %135 = load i64, ptr @H5E_RESOURCE_g, align 8, !tbaa !30
  %136 = load i64, ptr @H5E_NOSPACE_g, align 8, !tbaa !30
  %137 = call i32 (ptr, ptr, i32, i64, i64, ptr, ...) @H5E_printf_stack(ptr noundef @.str, ptr noundef @__func__.H5HF__dtable_init, i32 noundef 102, i64 noundef %135, i64 noundef %136, ptr noundef @.str.2)
  br label %138

138:                                              ; preds = %134
  br label %139

139:                                              ; preds = %138
  store i8 1, ptr %7, align 1, !tbaa !10
  %140 = load i8, ptr %7, align 1, !tbaa !10, !range !12, !noundef !13
  %141 = trunc i8 %140 to i1
  %142 = zext i1 %141 to i8
  store i8 %142, ptr %7, align 1, !tbaa !10
  br label %143

143:                                              ; preds = %139
  br label %144

144:                                              ; preds = %143
  br label %145

145:                                              ; preds = %144
  store i32 -1, ptr %6, align 4, !tbaa !8
  br label %263

146:                                              ; No predecessors!
  br label %147

147:                                              ; preds = %146
  br label %148

148:                                              ; preds = %147
  br label %149

149:                                              ; preds = %148
  br label %150

150:                                              ; preds = %149, %121
  %151 = load ptr, ptr %2, align 8, !tbaa !3
  %152 = getelementptr inbounds nuw %struct.H5HF_dtable_t, ptr %151, i32 0, i32 3
  %153 = load i32, ptr %152, align 4, !tbaa !23
  %154 = zext i32 %153 to i64
  %155 = mul i64 %154, 8
  %156 = call noalias ptr @malloc(i64 noundef %155) #9
  %157 = load ptr, ptr %2, align 8, !tbaa !3
  %158 = getelementptr inbounds nuw %struct.H5HF_dtable_t, ptr %157, i32 0, i32 12
  store ptr %156, ptr %158, align 8, !tbaa !32
  %159 = icmp eq ptr null, %156
  br i1 %159, label %160, label %179

160:                                              ; preds = %150
  br label %161

161:                                              ; preds = %160
  br label %162

162:                                              ; preds = %161
  br label %163

163:                                              ; preds = %162
  %164 = load i64, ptr @H5E_RESOURCE_g, align 8, !tbaa !30
  %165 = load i64, ptr @H5E_NOSPACE_g, align 8, !tbaa !30
  %166 = call i32 (ptr, ptr, i32, i64, i64, ptr, ...) @H5E_printf_stack(ptr noundef @.str, ptr noundef @__func__.H5HF__dtable_init, i32 noundef 106, i64 noundef %164, i64 noundef %165, ptr noundef @.str.3)
  br label %167

167:                                              ; preds = %163
  br label %168

168:                                              ; preds = %167
  store i8 1, ptr %7, align 1, !tbaa !10
  %169 = load i8, ptr %7, align 1, !tbaa !10, !range !12, !noundef !13
  %170 = trunc i8 %169 to i1
  %171 = zext i1 %170 to i8
  store i8 %171, ptr %7, align 1, !tbaa !10
  br label %172

172:                                              ; preds = %168
  br label %173

173:                                              ; preds = %172
  br label %174

174:                                              ; preds = %173
  store i32 -1, ptr %6, align 4, !tbaa !8
  br label %263

175:                                              ; No predecessors!
  br label %176

176:                                              ; preds = %175
  br label %177

177:                                              ; preds = %176
  br label %178

178:                                              ; preds = %177
  br label %179

179:                                              ; preds = %178, %150
  %180 = load ptr, ptr %2, align 8, !tbaa !3
  %181 = getelementptr inbounds nuw %struct.H5HF_dtable_t, ptr %180, i32 0, i32 3
  %182 = load i32, ptr %181, align 4, !tbaa !23
  %183 = zext i32 %182 to i64
  %184 = mul i64 %183, 8
  %185 = call noalias ptr @malloc(i64 noundef %184) #9
  %186 = load ptr, ptr %2, align 8, !tbaa !3
  %187 = getelementptr inbounds nuw %struct.H5HF_dtable_t, ptr %186, i32 0, i32 13
  store ptr %185, ptr %187, align 8, !tbaa !33
  %188 = icmp eq ptr null, %185
  br i1 %188, label %189, label %208

189:                                              ; preds = %179
  br label %190

190:                                              ; preds = %189
  br label %191

191:                                              ; preds = %190
  br label %192

192:                                              ; preds = %191
  %193 = load i64, ptr @H5E_RESOURCE_g, align 8, !tbaa !30
  %194 = load i64, ptr @H5E_NOSPACE_g, align 8, !tbaa !30
  %195 = call i32 (ptr, ptr, i32, i64, i64, ptr, ...) @H5E_printf_stack(ptr noundef @.str, ptr noundef @__func__.H5HF__dtable_init, i32 noundef 109, i64 noundef %193, i64 noundef %194, ptr noundef @.str.4)
  br label %196

196:                                              ; preds = %192
  br label %197

197:                                              ; preds = %196
  store i8 1, ptr %7, align 1, !tbaa !10
  %198 = load i8, ptr %7, align 1, !tbaa !10, !range !12, !noundef !13
  %199 = trunc i8 %198 to i1
  %200 = zext i1 %199 to i8
  store i8 %200, ptr %7, align 1, !tbaa !10
  br label %201

201:                                              ; preds = %197
  br label %202

202:                                              ; preds = %201
  br label %203

203:                                              ; preds = %202
  store i32 -1, ptr %6, align 4, !tbaa !8
  br label %263

204:                                              ; No predecessors!
  br label %205

205:                                              ; preds = %204
  br label %206

206:                                              ; preds = %205
  br label %207

207:                                              ; preds = %206
  br label %208

208:                                              ; preds = %207, %179
  %209 = load ptr, ptr %2, align 8, !tbaa !3
  %210 = getelementptr inbounds nuw %struct.H5HF_dtable_t, ptr %209, i32 0, i32 0
  %211 = getelementptr inbounds nuw %struct.H5HF_dtable_cparam_t, ptr %210, i32 0, i32 1
  %212 = load i64, ptr %211, align 8, !tbaa !14
  store i64 %212, ptr %3, align 8, !tbaa !30
  %213 = load ptr, ptr %2, align 8, !tbaa !3
  %214 = getelementptr inbounds nuw %struct.H5HF_dtable_t, ptr %213, i32 0, i32 0
  %215 = getelementptr inbounds nuw %struct.H5HF_dtable_cparam_t, ptr %214, i32 0, i32 1
  %216 = load i64, ptr %215, align 8, !tbaa !14
  %217 = load ptr, ptr %2, align 8, !tbaa !3
  %218 = getelementptr inbounds nuw %struct.H5HF_dtable_t, ptr %217, i32 0, i32 0
  %219 = getelementptr inbounds nuw %struct.H5HF_dtable_cparam_t, ptr %218, i32 0, i32 0
  %220 = load i32, ptr %219, align 8, !tbaa !20
  %221 = zext i32 %220 to i64
  %222 = mul i64 %216, %221
  store i64 %222, ptr %4, align 8, !tbaa !30
  %223 = load ptr, ptr %2, align 8, !tbaa !3
  %224 = getelementptr inbounds nuw %struct.H5HF_dtable_t, ptr %223, i32 0, i32 0
  %225 = getelementptr inbounds nuw %struct.H5HF_dtable_cparam_t, ptr %224, i32 0, i32 1
  %226 = load i64, ptr %225, align 8, !tbaa !14
  %227 = load ptr, ptr %2, align 8, !tbaa !3
  %228 = getelementptr inbounds nuw %struct.H5HF_dtable_t, ptr %227, i32 0, i32 10
  %229 = load ptr, ptr %228, align 8, !tbaa !29
  %230 = getelementptr inbounds i64, ptr %229, i64 0
  store i64 %226, ptr %230, align 8, !tbaa !30
  %231 = load ptr, ptr %2, align 8, !tbaa !3
  %232 = getelementptr inbounds nuw %struct.H5HF_dtable_t, ptr %231, i32 0, i32 11
  %233 = load ptr, ptr %232, align 8, !tbaa !31
  %234 = getelementptr inbounds i64, ptr %233, i64 0
  store i64 0, ptr %234, align 8, !tbaa !30
  store i64 1, ptr %5, align 8, !tbaa !30
  br label %235

235:                                              ; preds = %259, %208
  %236 = load i64, ptr %5, align 8, !tbaa !30
  %237 = load ptr, ptr %2, align 8, !tbaa !3
  %238 = getelementptr inbounds nuw %struct.H5HF_dtable_t, ptr %237, i32 0, i32 3
  %239 = load i32, ptr %238, align 4, !tbaa !23
  %240 = zext i32 %239 to i64
  %241 = icmp ult i64 %236, %240
  br i1 %241, label %242, label %262

242:                                              ; preds = %235
  %243 = load i64, ptr %3, align 8, !tbaa !30
  %244 = load ptr, ptr %2, align 8, !tbaa !3
  %245 = getelementptr inbounds nuw %struct.H5HF_dtable_t, ptr %244, i32 0, i32 10
  %246 = load ptr, ptr %245, align 8, !tbaa !29
  %247 = load i64, ptr %5, align 8, !tbaa !30
  %248 = getelementptr inbounds nuw i64, ptr %246, i64 %247
  store i64 %243, ptr %248, align 8, !tbaa !30
  %249 = load i64, ptr %4, align 8, !tbaa !30
  %250 = load ptr, ptr %2, align 8, !tbaa !3
  %251 = getelementptr inbounds nuw %struct.H5HF_dtable_t, ptr %250, i32 0, i32 11
  %252 = load ptr, ptr %251, align 8, !tbaa !31
  %253 = load i64, ptr %5, align 8, !tbaa !30
  %254 = getelementptr inbounds nuw i64, ptr %252, i64 %253
  store i64 %249, ptr %254, align 8, !tbaa !30
  %255 = load i64, ptr %3, align 8, !tbaa !30
  %256 = mul i64 %255, 2
  store i64 %256, ptr %3, align 8, !tbaa !30
  %257 = load i64, ptr %4, align 8, !tbaa !30
  %258 = mul i64 %257, 2
  store i64 %258, ptr %4, align 8, !tbaa !30
  br label %259

259:                                              ; preds = %242
  %260 = load i64, ptr %5, align 8, !tbaa !30
  %261 = add i64 %260, 1
  store i64 %261, ptr %5, align 8, !tbaa !30
  br label %235, !llvm.loop !34

262:                                              ; preds = %235
  br label %263

263:                                              ; preds = %262, %203, %174, %145, %116
  br label %264

264:                                              ; preds = %263, %14
  %265 = load i32, ptr %6, align 4, !tbaa !8
  call void @llvm.lifetime.end.p0(i64 1, ptr %7) #7
  call void @llvm.lifetime.end.p0(i64 4, ptr %6) #7
  call void @llvm.lifetime.end.p0(i64 8, ptr %5) #7
  call void @llvm.lifetime.end.p0(i64 8, ptr %4) #7
  call void @llvm.lifetime.end.p0(i64 8, ptr %3) #7
  ret i32 %265
}