; Function Attrs: nounwind uwtable
define range(i32 -1, 1) i32 @H5HF__dtable_init(ptr noundef captures(none) %0) local_unnamed_addr #0 {
  %2 = load i8, ptr @H5HF_init_g, align 1, !tbaa !3, !range !7, !noundef !8
  %3 = trunc nuw i8 %2 to i1
  %4 = load i8, ptr @H5_libterm_g, align 1, !range !7
  %5 = trunc nuw i8 %4 to i1
  %6 = xor i1 %5, true
  %7 = select i1 %3, i1 true, i1 %6
  br i1 %7, label %8, label %.loopexit, !prof !9

8:                                                ; preds = %1
  %9 = getelementptr inbounds nuw i8, ptr %0, i64 8
  %10 = load i64, ptr %9, align 8, !tbaa !10
  %11 = mul i64 %10, 125613361
  %12 = lshr i64 %11, 27
  %13 = and i64 %12, 31
  %14 = getelementptr inbounds nuw [32 x i32], ptr @MultiplyDeBruijnBitPosition, i64 0, i64 %13
  %15 = load i32, ptr %14, align 4, !tbaa !17
  %16 = getelementptr inbounds nuw i8, ptr %0, i64 52
  store i32 %15, ptr %16, align 4, !tbaa !18
  %17 = load i32, ptr %0, align 8, !tbaa !19
  %18 = mul i32 %17, 125613361
  %19 = lshr i32 %18, 27
  %20 = zext nneg i32 %19 to i64
  %21 = getelementptr inbounds nuw [32 x i32], ptr @MultiplyDeBruijnBitPosition, i64 0, i64 %20
  %22 = load i32, ptr %21, align 4, !tbaa !17
  %23 = add i32 %22, %15
  %24 = getelementptr inbounds nuw i8, ptr %0, i64 64
  store i32 %23, ptr %24, align 8, !tbaa !20
  %25 = getelementptr inbounds nuw i8, ptr %0, i64 24
  %26 = load i32, ptr %25, align 8, !tbaa !21
  %27 = sub i32 %26, %23
  %28 = add i32 %27, 1
  %29 = getelementptr inbounds nuw i8, ptr %0, i64 44
  store i32 %28, ptr %29, align 4, !tbaa !22
  %30 = getelementptr inbounds nuw i8, ptr %0, i64 16
  %31 = load i64, ptr %30, align 8, !tbaa !23
  %32 = mul i64 %31, 125613361
  %33 = lshr i64 %32, 27
  %34 = and i64 %33, 31
  %35 = getelementptr inbounds nuw [32 x i32], ptr @MultiplyDeBruijnBitPosition, i64 0, i64 %34
  %36 = load i32, ptr %35, align 4, !tbaa !17
  %37 = getelementptr inbounds nuw i8, ptr %0, i64 56
  store i32 %36, ptr %37, align 8, !tbaa !24
  %reass.sub = sub i32 %36, %15
  %38 = add i32 %reass.sub, 2
  %39 = getelementptr inbounds nuw i8, ptr %0, i64 48
  store i32 %38, ptr %39, align 8, !tbaa !25
  %40 = zext i32 %17 to i64
  %41 = mul i64 %10, %40
  %42 = getelementptr inbounds nuw i8, ptr %0, i64 72
  store i64 %41, ptr %42, align 8, !tbaa !26
  %43 = add i32 %36, 7
  %44 = lshr i32 %43, 3
  %45 = getelementptr inbounds nuw i8, ptr %0, i64 60
  store i32 %44, ptr %45, align 4, !tbaa !27
  %46 = zext i32 %28 to i64
  %47 = shl nuw nsw i64 %46, 3
  %48 = tail call noalias ptr @malloc(i64 noundef %47) #6
  %49 = getelementptr inbounds nuw i8, ptr %0, i64 80
  store ptr %48, ptr %49, align 8, !tbaa !28
  %50 = icmp eq ptr %48, null
  br i1 %50, label %51, label %55

51:                                               ; preds = %8
  %52 = load i64, ptr @H5E_RESOURCE_g, align 8, !tbaa !29
  %53 = load i64, ptr @H5E_NOSPACE_g, align 8, !tbaa !29
  %54 = tail call i32 (ptr, ptr, i32, i64, i64, ptr, ...) @H5E_printf_stack(ptr noundef nonnull @.str, ptr noundef nonnull @__func__.H5HF__dtable_init, i32 noundef 100, i64 noundef %52, i64 noundef %53, ptr noundef nonnull @.str.1) #7
  br label %.loopexit

55:                                               ; preds = %8
  %56 = tail call noalias ptr @malloc(i64 noundef %47) #6
  %57 = getelementptr inbounds nuw i8, ptr %0, i64 88
  store ptr %56, ptr %57, align 8, !tbaa !30
  %58 = icmp eq ptr %56, null
  br i1 %58, label %59, label %63

59:                                               ; preds = %55
  %60 = load i64, ptr @H5E_RESOURCE_g, align 8, !tbaa !29
  %61 = load i64, ptr @H5E_NOSPACE_g, align 8, !tbaa !29
  %62 = tail call i32 (ptr, ptr, i32, i64, i64, ptr, ...) @H5E_printf_stack(ptr noundef nonnull @.str, ptr noundef nonnull @__func__.H5HF__dtable_init, i32 noundef 102, i64 noundef %60, i64 noundef %61, ptr noundef nonnull @.str.2) #7
  br label %.loopexit

63:                                               ; preds = %55
  %64 = tail call noalias ptr @malloc(i64 noundef %47) #6
  %65 = getelementptr inbounds nuw i8, ptr %0, i64 96
  store ptr %64, ptr %65, align 8, !tbaa !31
  %66 = icmp eq ptr %64, null
  br i1 %66, label %67, label %71

67:                                               ; preds = %63
  %68 = load i64, ptr @H5E_RESOURCE_g, align 8, !tbaa !29
  %69 = load i64, ptr @H5E_NOSPACE_g, align 8, !tbaa !29
  %70 = tail call i32 (ptr, ptr, i32, i64, i64, ptr, ...) @H5E_printf_stack(ptr noundef nonnull @.str, ptr noundef nonnull @__func__.H5HF__dtable_init, i32 noundef 106, i64 noundef %68, i64 noundef %69, ptr noundef nonnull @.str.3) #7
  br label %.loopexit

71:                                               ; preds = %63
  %72 = tail call noalias ptr @malloc(i64 noundef %47) #6
  %73 = getelementptr inbounds nuw i8, ptr %0, i64 104
  store ptr %72, ptr %73, align 8, !tbaa !32
  %74 = icmp eq ptr %72, null
  br i1 %74, label %75, label %79

75:                                               ; preds = %71
  %76 = load i64, ptr @H5E_RESOURCE_g, align 8, !tbaa !29
  %77 = load i64, ptr @H5E_NOSPACE_g, align 8, !tbaa !29
  %78 = tail call i32 (ptr, ptr, i32, i64, i64, ptr, ...) @H5E_printf_stack(ptr noundef nonnull @.str, ptr noundef nonnull @__func__.H5HF__dtable_init, i32 noundef 109, i64 noundef %76, i64 noundef %77, ptr noundef nonnull @.str.4) #7
  br label %.loopexit

79:                                               ; preds = %71
  store i64 %10, ptr %48, align 8, !tbaa !29
  store i64 0, ptr %56, align 8, !tbaa !29
  %80 = icmp ugt i32 %28, 1
  br i1 %80, label %.lr.ph, label %.loopexit

.lr.ph:                                           ; preds = %79, %.lr.ph
  %.04752 = phi i64 [ %85, %.lr.ph ], [ 1, %79 ]
  %.04851 = phi i64 [ %84, %.lr.ph ], [ %41, %79 ]
  %.04950 = phi i64 [ %83, %.lr.ph ], [ %10, %79 ]
  %81 = getelementptr inbounds nuw i64, ptr %48, i64 %.04752
  store i64 %.04950, ptr %81, align 8, !tbaa !29
  %82 = getelementptr inbounds nuw i64, ptr %56, i64 %.04752
  store i64 %.04851, ptr %82, align 8, !tbaa !29
  %83 = shl i64 %.04950, 1
  %84 = shl i64 %.04851, 1
  %85 = add nuw nsw i64 %.04752, 1
  %exitcond.not = icmp eq i64 %85, %46
  br i1 %exitcond.not, label %.loopexit, label %.lr.ph, !llvm.loop !33

.loopexit:                                        ; preds = %.lr.ph, %79, %51, %59, %67, %75, %1
  %.0 = phi i32 [ -1, %51 ], [ -1, %59 ], [ -1, %67 ], [ -1, %75 ], [ 0, %1 ], [ 0, %79 ], [ 0, %.lr.ph ]
  ret i32 %.0
}